target datalayout = "e-m:e-p270:32:32-p271:32:32-p272:64:64-i64:64-i128:128-f80:128-n8:16:32:64-S128"
target triple = "x86_64-pc-linux-gnu"

%struct._cmstransform_struct = type { i32, i32, ptr, ptr, ptr, ptr, ptr, %struct._cmsCACHE, ptr, ptr, ptr, ptr, i32, i32, %struct.cmsCIEXYZ, %struct.cmsCIEXYZ, ptr, i32, double, i32, ptr, ptr, ptr, ptr, ptr, i32, i32 }
%struct._cmsCACHE = type { [16 x i16], [16 x i16] }
%struct.cmsCIEXYZ = type { double, double, double }

; Function Attrs: nounwind uwtable
define internal ptr @UnrollPlanarWords(ptr noundef %0, ptr noundef %1, ptr noundef %2, i32 noundef %3) #0 {
  %5 = alloca ptr, align 8
  %6 = alloca ptr, align 8
  %7 = alloca ptr, align 8
  %8 = alloca i32, align 4
  %9 = alloca i32, align 4
  %10 = alloca i32, align 4
  %11 = alloca i32, align 4
  %12 = alloca i32, align 4
  %13 = alloca i32, align 4
  %14 = alloca ptr, align 8
  %15 = alloca i32, align 4
  %16 = alloca i16, align 2
  store ptr %0, ptr %5, align 8
  store ptr %1, ptr %6, align 8
  store ptr %2, ptr %7, align 8
  store i32 %3, ptr %8, align 4
  %17 = load ptr, ptr %5, align 8
  %18 = getelementptr inbounds %struct._cmstransform_struct, ptr %17, i32 0, i32 0
  %19 = load i32, ptr %18, align 8
  %20 = lshr i32 %19, 3
  %21 = and i32 %20, 15
  store i32 %21, ptr %9, align 4
  %22 = load ptr, ptr %5, align 8
  %23 = getelementptr inbounds %struct._cmstransform_struct, ptr %22, i32 0, i32 0
  %24 = load i32, ptr %23, align 8
  %25 = lshr i32 %24, 10
  %26 = and i32 %25, 1
  store i32 %26, ptr %10, align 4
  %27 = load ptr, ptr %5, align 8
  %28 = getelementptr inbounds %struct._cmstransform_struct, ptr %27, i32 0, i32 0
  %29 = load i32, ptr %28, align 8
  %30 = lshr i32 %29, 13
  %31 = and i32 %30, 1
  store i32 %31, ptr %11, align 4
  %32 = load ptr, ptr %5, align 8
  %33 = getelementptr inbounds %struct._cmstransform_struct, ptr %32, i32 0, i32 0
  %34 = load i32, ptr %33, align 8
  %35 = lshr i32 %34, 11
  %36 = and i32 %35, 1
  store i32 %36, ptr %12, align 4
  %37 = load ptr, ptr %7, align 8
  store ptr %37, ptr %14, align 8
  %38 = load i32, ptr %10, align 4
  %39 = icmp ne i32 %38, 0
  br i1 %39, label %40, label %51

40:                                               ; preds = %4
  %41 = load ptr, ptr %5, align 8
  %42 = getelementptr inbounds %struct._cmstransform_struct, ptr %41, i32 0, i32 0
  %43 = load i32, ptr %42, align 8
  %44 = lshr i32 %43, 7
  %45 = and i32 %44, 7
  %46 = load i32, ptr %8, align 4
  %47 = mul i32 %45, %46
  %48 = load ptr, ptr %7, align 8
  %49 = zext i32 %47 to i64
  %50 = getelementptr inbounds i8, ptr %48, i64 %49
  store ptr %50, ptr %7, align 8
  br label %51

51:                                               ; preds = %40, %4
  store i32 0, ptr %13, align 4
  br label %52

52:                                               ; preds = %106, %51
  %53 = load i32, ptr %13, align 4
  %54 = load i32, ptr %9, align 4
  %55 = icmp ult i32 %53, %54
  br i1 %55, label %56, label %109

56:                                               ; preds = %52
  %57 = load i32, ptr %10, align 4
  %58 = icmp ne i32 %57, 0
  br i1 %58, label %59, label %64

59:                                               ; preds = %56
  %60 = load i32, ptr %9, align 4
  %61 = load i32, ptr %13, align 4
  %62 = sub i32 %60, %61
  %63 = sub i32 %62, 1
  br label %66

64:                                               ; preds = %56
  %65 = load i32, ptr %13, align 4
  br label %66

66:                                               ; preds = %64, %59
  %67 = phi i32 [ %63, %59 ], [ %65, %64 ]
  store i32 %67, ptr %15, align 4
  %68 = load ptr, ptr %7, align 8
  %69 = load i16, ptr %68, align 2
  store i16 %69, ptr %16, align 2
  %70 = load i32, ptr %12, align 4
  %71 = icmp ne i32 %70, 0
  br i1 %71, label %72, label %83

72:                                               ; preds = %66
  %73 = load i16, ptr %16, align 2
  %74 = zext i16 %73 to i32
  %75 = shl i32 %74, 8
  %76 = trunc i32 %75 to i16
  %77 = zext i16 %76 to i32
  %78 = load i16, ptr %16, align 2
  %79 = zext i16 %78 to i32
  %80 = ashr i32 %79, 8
  %81 = or i32 %77, %80
  %82 = trunc i32 %81 to i16
  store i16 %82, ptr %16, align 2
  br label %83

83:                                               ; preds = %72, %66
  %84 = load i32, ptr %11, align 4
  %85 = icmp ne i32 %84, 0
  br i1 %85, label %86, label %92

86:                                               ; preds = %83
  %87 = load i16, ptr %16, align 2
  %88 = zext i16 %87 to i32
  %89 = sub nsw i32 65535, %88
  %90 = trunc i32 %89 to i16
  %91 = zext i16 %90 to i32
  br label %95

92:                                               ; preds = %83
  %93 = load i16, ptr %16, align 2
  %94 = zext i16 %93 to i32
  br label %95

95:                                               ; preds = %92, %86
  %96 = phi i32 [ %91, %86 ], [ %94, %92 ]
  %97 = trunc i32 %96 to i16
  %98 = load ptr, ptr %6, align 8
  %99 = load i32, ptr %15, align 4
  %100 = zext i32 %99 to i64
  %101 = getelementptr inbounds i16, ptr %98, i64 %100
  store i16 %97, ptr %101, align 2
  %102 = load i32, ptr %8, align 4
  %103 = load ptr, ptr %7, align 8
  %104 = zext i32 %102 to i64
  %105 = getelementptr inbounds i8, ptr %103, i64 %104
  store ptr %105, ptr %7, align 8
  br label %106

106:                                              ; preds = %95
  %107 = load i32, ptr %13, align 4
  %108 = add i32 %107, 1
  store i32 %108, ptr %13, align 4
  br label %52, !llvm.loop !17

109:                                              ; preds = %52
  %110 = load ptr, ptr %14, align 8
  %111 = getelementptr inbounds i8, ptr %110, i64 2
  ret ptr %111
}