; Function Attrs: nofree norecurse nosync nounwind memory(read, argmem: readwrite, inaccessiblemem: none) uwtable
define internal nonnull ptr @UnrollPlanarWords(ptr nocapture noundef readonly %0, ptr nocapture noundef writeonly %1, ptr noundef readonly %2, i32 noundef %3) #5 {
  %5 = load i32, ptr %0, align 8
  %.fr41 = freeze i32 %5
  %6 = lshr i32 %.fr41, 3
  %7 = and i32 %6, 15
  %8 = and i32 %.fr41, 1024
  %.not = icmp eq i32 %8, 0
  %9 = lshr i32 %.fr41, 7
  %10 = and i32 %9, 7
  %11 = mul i32 %10, %3
  %narrow = select i1 %.not, i32 0, i32 %11
  %.027.idx = zext i32 %narrow to i64
  %.027 = getelementptr inbounds i8, ptr %2, i64 %.027.idx
  %.not40 = icmp eq i32 %7, 0
  br i1 %.not40, label %._crit_edge, label %.lr.ph

.lr.ph:                                           ; preds = %4
  %12 = and i32 %.fr41, 2048
  %.not30 = icmp eq i32 %12, 0
  %13 = shl i32 %.fr41, 18
  %sext = ashr i32 %13, 31
  %14 = trunc nsw i32 %sext to i16
  %15 = zext i32 %3 to i64
  %wide.trip.count59 = zext nneg i32 %7 to i64
  br i1 %.not, label %.lr.ph.split.us, label %.lr.ph.split

.lr.ph.split.us:                                  ; preds = %.lr.ph
  br i1 %.not30, label %.lr.ph.split.us.split.us, label %.lr.ph.split.us.split

.lr.ph.split.us.split.us:                         ; preds = %.lr.ph.split.us, %.lr.ph.split.us.split.us
  %indvars.iv56 = phi i64 [ %indvars.iv.next57, %.lr.ph.split.us.split.us ], [ 0, %.lr.ph.split.us ]
  %.133.us.us = phi ptr [ %18, %.lr.ph.split.us.split.us ], [ %.027, %.lr.ph.split.us ]
  %16 = load i16, ptr %.133.us.us, align 2
  %.v.us.us = xor i16 %16, %14
  %17 = getelementptr inbounds i16, ptr %1, i64 %indvars.iv56
  store i16 %.v.us.us, ptr %17, align 2
  %18 = getelementptr inbounds i8, ptr %.133.us.us, i64 %15
  %indvars.iv.next57 = add nuw nsw i64 %indvars.iv56, 1
  %exitcond60.not = icmp eq i64 %indvars.iv.next57, %wide.trip.count59
  br i1 %exitcond60.not, label %._crit_edge, label %.lr.ph.split.us.split.us, !llvm.loop !17

.lr.ph.split.us.split:                            ; preds = %.lr.ph.split.us, %.lr.ph.split.us.split
  %indvars.iv51 = phi i64 [ %indvars.iv.next52, %.lr.ph.split.us.split ], [ 0, %.lr.ph.split.us ]
  %.133.us = phi ptr [ %21, %.lr.ph.split.us.split ], [ %.027, %.lr.ph.split.us ]
  %19 = load i16, ptr %.133.us, align 2
  %rev.us = tail call i16 @llvm.bswap.i16(i16 %19)
  %.v.us = xor i16 %rev.us, %14
  %20 = getelementptr inbounds i16, ptr %1, i64 %indvars.iv51
  store i16 %.v.us, ptr %20, align 2
  %21 = getelementptr inbounds i8, ptr %.133.us, i64 %15
  %indvars.iv.next52 = add nuw nsw i64 %indvars.iv51, 1
  %exitcond55.not = icmp eq i64 %indvars.iv.next52, %wide.trip.count59
  br i1 %exitcond55.not, label %._crit_edge, label %.lr.ph.split.us.split, !llvm.loop !17

.lr.ph.split:                                     ; preds = %.lr.ph
  br i1 %.not30, label %.lr.ph.split.split.us, label %.lr.ph.split.split

.lr.ph.split.split.us:                            ; preds = %.lr.ph.split, %.lr.ph.split.split.us
  %indvars.iv46 = phi i64 [ %indvars.iv.next47, %.lr.ph.split.split.us ], [ 0, %.lr.ph.split ]
  %.133.us34 = phi ptr [ %28, %.lr.ph.split.split.us ], [ %.027, %.lr.ph.split ]
  %22 = trunc nuw nsw i64 %indvars.iv46 to i32
  %23 = xor i32 %22, -1
  %24 = add nsw i32 %7, %23
  %25 = load i16, ptr %.133.us34, align 2
  %.v.us38 = xor i16 %25, %14
  %26 = zext i32 %24 to i64
  %27 = getelementptr inbounds i16, ptr %1, i64 %26
  store i16 %.v.us38, ptr %27, align 2
  %28 = getelementptr inbounds i8, ptr %.133.us34, i64 %15
  %indvars.iv.next47 = add nuw nsw i64 %indvars.iv46, 1
  %exitcond50.not = icmp eq i64 %indvars.iv.next47, %wide.trip.count59
  br i1 %exitcond50.not, label %._crit_edge, label %.lr.ph.split.split.us, !llvm.loop !17

.lr.ph.split.split:                               ; preds = %.lr.ph.split, %.lr.ph.split.split
  %indvars.iv = phi i64 [ %indvars.iv.next, %.lr.ph.split.split ], [ 0, %.lr.ph.split ]
  %.133 = phi ptr [ %35, %.lr.ph.split.split ], [ %.027, %.lr.ph.split ]
  %29 = trunc nuw nsw i64 %indvars.iv to i32
  %30 = xor i32 %29, -1
  %31 = add nsw i32 %7, %30
  %32 = load i16, ptr %.133, align 2
  %rev = tail call i16 @llvm.bswap.i16(i16 %32)
  %.v = xor i16 %rev, %14
  %33 = zext i32 %31 to i64
  %34 = getelementptr inbounds i16, ptr %1, i64 %33
  store i16 %.v, ptr %34, align 2
  %35 = getelementptr inbounds i8, ptr %.133, i64 %15
  %indvars.iv.next = add nuw nsw i64 %indvars.iv, 1
  %exitcond.not = icmp eq i64 %indvars.iv.next, %wide.trip.count59
  br i1 %exitcond.not, label %._crit_edge, label %.lr.ph.split.split, !llvm.loop !17

._crit_edge:                                      ; preds = %.lr.ph.split.split, %.lr.ph.split.split.us, %.lr.ph.split.us.split, %.lr.ph.split.us.split.us, %4
  %36 = getelementptr inbounds i8, ptr %2, i64 2
  ret ptr %36
}